target datalayout = "e-m:e-p270:32:32-p271:32:32-p272:64:64-i64:64-i128:128-f80:128-n8:16:32:64-S128"
target triple = "x86_64-pc-linux-gnu"

%struct.t_citerec = type { ptr, ptr, ptr, ptr, i32, i32, ptr }

@.str.321 = private unnamed_addr constant [57 x i8] c"\0A++++ PLEASE READ AND CITE THE FOLLOWING REFERENCE ++++\0A\00", align 1
@.str.322 = private unnamed_addr constant [25 x i8] c"%s\0A%s\0A%s %d (%d) pp. %s\0A\00", align 1
@.str.323 = private unnamed_addr constant [7 x i8] c"author\00", align 1
@.str.324 = private unnamed_addr constant [128 x i8] c"generated/home/dtcxzyw/WorkSpace/Projects/compilers/llvm-opt-benchmark/bench/gromacs/gromacs/src/gromacs/utility/pleasecite.cpp\00", align 1
@.str.325 = private unnamed_addr constant [6 x i8] c"title\00", align 1
@.str.326 = private unnamed_addr constant [41 x i8] c"Entry %s not found in citation database\0A\00", align 1
@.str.327 = private unnamed_addr constant [56 x i8] c"-------- -------- --- Thank You --- -------- --------\0A\0A\00", align 1

; Function Attrs: mustprogress uwtable
define internal void @_ZL14gmx_sfree_implIcEvPKcS1_iPT_(ptr noundef %0, ptr noundef %1, i32 noundef %2, ptr noundef %3) #0 {
  %5 = alloca ptr, align 8
  %6 = alloca ptr, align 8
  %7 = alloca i32, align 4
  %8 = alloca ptr, align 8
  store ptr %0, ptr %5, align 8
  store ptr %1, ptr %6, align 8
  store i32 %2, ptr %7, align 4
  store ptr %3, ptr %8, align 8
  %9 = load ptr, ptr %5, align 8
  %10 = load ptr, ptr %6, align 8
  %11 = load i32, ptr %7, align 4
  %12 = load ptr, ptr %8, align 8
  call void @_Z9save_freePKcS0_iPv(ptr noundef %9, ptr noundef %10, i32 noundef %11, ptr noundef %12)
  ret void
}

; Function Attrs: mustprogress nounwind uwtable
define linkonce_odr noundef i32 @_Z5asizeIK9t_citerecLi71EEiRAT0__T_(ptr noundef nonnull align 8 dereferenceable(3408) %0) #1 comdat {
  %2 = alloca ptr, align 8
  store ptr %0, ptr %2, align 8
  ret i32 71
}

; Function Attrs: mustprogress uwtable
define void @_Z11please_citeP8_IO_FILEPKc(ptr noundef %0, ptr noundef %1) #0 {
  %3 = alloca ptr, align 8
  %4 = alloca ptr, align 8
  %5 = alloca i32, align 4
  %6 = alloca ptr, align 8
  %7 = alloca ptr, align 8
  store ptr %0, ptr %3, align 8
  store ptr %1, ptr %4, align 8
  %8 = load ptr, ptr %3, align 8
  %9 = icmp eq ptr %8, null
  br i1 %9, label %10, label %11

10:                                               ; preds = %2
  br label %85

11:                                               ; preds = %2
  store i32 0, ptr %5, align 4
  br label %12

12:                                               ; preds = %28, %11
  %13 = load i32, ptr %5, align 4
  %14 = call noundef i32 @_Z5asizeIK9t_citerecLi71EEiRAT0__T_(ptr noundef nonnull align 8 dereferenceable(3408) @_ZZ11please_citeP8_IO_FILEPKcE6citedb)
  %15 = icmp slt i32 %13, %14
  br i1 %15, label %16, label %25

16:                                               ; preds = %12
  %17 = load i32, ptr %5, align 4
  %18 = sext i32 %17 to i64
  %19 = getelementptr inbounds [71 x %struct.t_citerec], ptr @_ZZ11please_citeP8_IO_FILEPKcE6citedb, i64 0, i64 %18
  %20 = getelementptr inbounds %struct.t_citerec, ptr %19, i32 0, i32 0
  %21 = load ptr, ptr %20, align 16
  %22 = load ptr, ptr %4, align 8
  %23 = call i32 @strcmp(ptr noundef %21, ptr noundef %22) #7
  %24 = icmp ne i32 %23, 0
  br label %25

25:                                               ; preds = %16, %12
  %26 = phi i1 [ false, %12 ], [ %24, %16 ]
  br i1 %26, label %27, label %31

27:                                               ; preds = %25
  br label %28

28:                                               ; preds = %27
  %29 = load i32, ptr %5, align 4
  %30 = add nsw i32 %29, 1
  store i32 %30, ptr %5, align 4
  br label %12, !llvm.loop !5

31:                                               ; preds = %25
  %32 = load ptr, ptr %3, align 8
  %33 = call i32 (ptr, ptr, ...) @fprintf(ptr noundef %32, ptr noundef @.str.321) #8
  %34 = load i32, ptr %5, align 4
  %35 = call noundef i32 @_Z5asizeIK9t_citerecLi71EEiRAT0__T_(ptr noundef nonnull align 8 dereferenceable(3408) @_ZZ11please_citeP8_IO_FILEPKcE6citedb)
  %36 = icmp slt i32 %34, %35
  br i1 %36, label %37, label %76

37:                                               ; preds = %31
  %38 = load i32, ptr %5, align 4
  %39 = sext i32 %38 to i64
  %40 = getelementptr inbounds [71 x %struct.t_citerec], ptr @_ZZ11please_citeP8_IO_FILEPKcE6citedb, i64 0, i64 %39
  %41 = getelementptr inbounds %struct.t_citerec, ptr %40, i32 0, i32 1
  %42 = load ptr, ptr %41, align 8
  %43 = call noundef ptr @_Z10wrap_linesPKciib(ptr noundef %42, i32 noundef 79, i32 noundef 0, i1 noundef zeroext false)
  store ptr %43, ptr %6, align 8
  %44 = load i32, ptr %5, align 4
  %45 = sext i32 %44 to i64
  %46 = getelementptr inbounds [71 x %struct.t_citerec], ptr @_ZZ11please_citeP8_IO_FILEPKcE6citedb, i64 0, i64 %45
  %47 = getelementptr inbounds %struct.t_citerec, ptr %46, i32 0, i32 2
  %48 = load ptr, ptr %47, align 16
  %49 = call noundef ptr @_Z10wrap_linesPKciib(ptr noundef %48, i32 noundef 79, i32 noundef 0, i1 noundef zeroext false)
  store ptr %49, ptr %7, align 8
  %50 = load ptr, ptr %3, align 8
  %51 = load ptr, ptr %6, align 8
  %52 = load ptr, ptr %7, align 8
  %53 = load i32, ptr %5, align 4
  %54 = sext i32 %53 to i64
  %55 = getelementptr inbounds [71 x %struct.t_citerec], ptr @_ZZ11please_citeP8_IO_FILEPKcE6citedb, i64 0, i64 %54
  %56 = getelementptr inbounds %struct.t_citerec, ptr %55, i32 0, i32 3
  %57 = load ptr, ptr %56, align 8
  %58 = load i32, ptr %5, align 4
  %59 = sext i32 %58 to i64
  %60 = getelementptr inbounds [71 x %struct.t_citerec], ptr @_ZZ11please_citeP8_IO_FILEPKcE6citedb, i64 0, i64 %59
  %61 = getelementptr inbounds %struct.t_citerec, ptr %60, i32 0, i32 4
  %62 = load i32, ptr %61, align 16
  %63 = load i32, ptr %5, align 4
  %64 = sext i32 %63 to i64
  %65 = getelementptr inbounds [71 x %struct.t_citerec], ptr @_ZZ11please_citeP8_IO_FILEPKcE6citedb, i64 0, i64 %64
  %66 = getelementptr inbounds %struct.t_citerec, ptr %65, i32 0, i32 5
  %67 = load i32, ptr %66, align 4
  %68 = load i32, ptr %5, align 4
  %69 = sext i32 %68 to i64
  %70 = getelementptr inbounds [71 x %struct.t_citerec], ptr @_ZZ11please_citeP8_IO_FILEPKcE6citedb, i64 0, i64 %69
  %71 = getelementptr inbounds %struct.t_citerec, ptr %70, i32 0, i32 6
  %72 = load ptr, ptr %71, align 8
  %73 = call i32 (ptr, ptr, ...) @fprintf(ptr noundef %50, ptr noundef @.str.322, ptr noundef %51, ptr noundef %52, ptr noundef %57, i32 noundef %62, i32 noundef %67, ptr noundef %72) #8
  %74 = load ptr, ptr %6, align 8
  call void @_ZL14gmx_sfree_implIcEvPKcS1_iPT_(ptr noundef @.str.323, ptr noundef @.str.324, i32 noundef 618, ptr noundef %74)
  %75 = load ptr, ptr %7, align 8
  call void @_ZL14gmx_sfree_implIcEvPKcS1_iPT_(ptr noundef @.str.325, ptr noundef @.str.324, i32 noundef 619, ptr noundef %75)
  br label %80

76:                                               ; preds = %31
  %77 = load ptr, ptr %3, align 8
  %78 = load ptr, ptr %4, align 8
  %79 = call i32 (ptr, ptr, ...) @fprintf(ptr noundef %77, ptr noundef @.str.326, ptr noundef %78) #8
  br label %80

80:                                               ; preds = %76, %37
  %81 = load ptr, ptr %3, align 8
  %82 = call i32 (ptr, ptr, ...) @fprintf(ptr noundef %81, ptr noundef @.str.327) #8
  %83 = load ptr, ptr %3, align 8
  %84 = call i32 @fflush(ptr noundef %83)
  br label %85

85:                                               ; preds = %80, %10
  ret void
}