; Function Attrs: mustprogress uwtable
define void @_Z11please_citeP8_IO_FILEPKc(ptr noundef %0, ptr noundef %1) local_unnamed_addr #0 {
  %3 = icmp eq ptr %0, null
  br i1 %3, label %33, label %.preheader

.preheader:                                       ; preds = %2, %7
  %indvars.iv = phi i64 [ %indvars.iv.next, %7 ], [ 0, %2 ]
  %4 = getelementptr inbounds [71 x %struct.t_citerec], ptr @_ZZ11please_citeP8_IO_FILEPKcE6citedb, i64 0, i64 %indvars.iv
  %5 = load ptr, ptr %4, align 16
  %6 = tail call i32 @strcmp(ptr noundef nonnull dereferenceable(1) %5, ptr noundef nonnull dereferenceable(1) %1) #10
  %.not = icmp eq i32 %6, 0
  br i1 %.not, label %8, label %7

7:                                                ; preds = %.preheader
  %indvars.iv.next = add nuw nsw i64 %indvars.iv, 1
  %exitcond.not = icmp eq i64 %indvars.iv.next, 71
  br i1 %exitcond.not, label %27, label %.preheader, !llvm.loop !5

8:                                                ; preds = %.preheader
  %9 = tail call i64 @fwrite(ptr nonnull @.str.321, i64 56, i64 1, ptr nonnull %0)
  %10 = and i64 %indvars.iv, 4294967295
  %11 = getelementptr inbounds [71 x %struct.t_citerec], ptr @_ZZ11please_citeP8_IO_FILEPKcE6citedb, i64 0, i64 %10
  %12 = getelementptr inbounds i8, ptr %11, i64 8
  %13 = load ptr, ptr %12, align 8
  %14 = tail call noundef ptr @_Z10wrap_linesPKciib(ptr noundef %13, i32 noundef 79, i32 noundef 0, i1 noundef zeroext false)
  %15 = getelementptr inbounds i8, ptr %11, i64 16
  %16 = load ptr, ptr %15, align 16
  %17 = tail call noundef ptr @_Z10wrap_linesPKciib(ptr noundef %16, i32 noundef 79, i32 noundef 0, i1 noundef zeroext false)
  %18 = getelementptr inbounds i8, ptr %11, i64 24
  %19 = load ptr, ptr %18, align 8
  %20 = getelementptr inbounds i8, ptr %11, i64 32
  %21 = load i32, ptr %20, align 16
  %22 = getelementptr inbounds i8, ptr %11, i64 36
  %23 = load i32, ptr %22, align 4
  %24 = getelementptr inbounds i8, ptr %11, i64 40
  %25 = load ptr, ptr %24, align 8
  %26 = tail call i32 (ptr, ptr, ...) @fprintf(ptr noundef nonnull %0, ptr noundef nonnull @.str.322, ptr noundef %14, ptr noundef %17, ptr noundef %19, i32 noundef %21, i32 noundef %23, ptr noundef %25) #11
  tail call void @_Z9save_freePKcS0_iPv(ptr noundef nonnull @.str.323, ptr noundef nonnull @.str.324, i32 noundef 618, ptr noundef %14)
  tail call void @_Z9save_freePKcS0_iPv(ptr noundef nonnull @.str.325, ptr noundef nonnull @.str.324, i32 noundef 619, ptr noundef %17)
  br label %30

27:                                               ; preds = %7
  %28 = tail call i64 @fwrite(ptr nonnull @.str.321, i64 56, i64 1, ptr nonnull %0)
  %29 = tail call i32 (ptr, ptr, ...) @fprintf(ptr noundef nonnull %0, ptr noundef nonnull @.str.326, ptr noundef %1) #11
  br label %30

30:                                               ; preds = %27, %8
  %31 = tail call i64 @fwrite(ptr nonnull @.str.327, i64 55, i64 1, ptr nonnull %0)
  %32 = tail call i32 @fflush(ptr noundef nonnull %0)
  br label %33

33:                                               ; preds = %2, %30
  ret void
}